; Function Attrs: mustprogress uwtable
define hidden void @_ZN4cvc58internal6theory11quantifiers9InstMatch5resetEm(ptr nocapture noundef nonnull readonly align 8 dereferenceable(72) %this, i64 noundef %i) local_unnamed_addr #3 align 2 personality ptr @__gxx_personality_v0 {
entry:
  %ref.tmp = alloca %"class.cvc5::internal::NodeTemplate.0", align 8
  %d_ieval = getelementptr inbounds i8, ptr %this, i64 64
  %0 = load ptr, ptr %d_ieval, align 8
  %cmp.not = icmp eq ptr %0, null
  br i1 %cmp.not, label %if.end, label %if.then

if.then:                                          ; preds = %entry
  tail call void @_ZN4cvc58internal6theory11quantifiers5ieval13InstEvaluator3popEv(ptr noundef nonnull align 8 dereferenceable(1040) %0)
  br label %if.end

if.end:                                           ; preds = %if.then, %entry
  tail call void @llvm.experimental.noalias.scope.decl(metadata !22)
  %1 = load ptr, ptr @_ZN4cvc58internal12NodeTemplateILb1EE6s_nullE, align 8, !noalias !22
  store ptr %1, ptr %ref.tmp, align 8, !alias.scope !22
  %bf.load.i.i.i = load i64, ptr %1, align 8, !noalias !22
  %bf.lshr.i.i.i = lshr i64 %bf.load.i.i.i, 40
  %2 = trunc i64 %bf.lshr.i.i.i to i32
  %bf.cast.i.i.i = and i32 %2, 1048575
  %cmp.i.i.i = icmp ult i32 %bf.cast.i.i.i, 1048574
  br i1 %cmp.i.i.i, label %if.then.i.i.i, label %if.else.i.i.i

if.then.i.i.i:                                    ; preds = %if.end
  %bf.value.i.i.i = add i64 %bf.load.i.i.i, 1099511627776
  %bf.shl.i.i.i = and i64 %bf.value.i.i.i, 1152920405095219200
  %bf.clear7.i.i.i = and i64 %bf.load.i.i.i, -1152920405095219201
  %bf.set.i.i.i = or disjoint i64 %bf.shl.i.i.i, %bf.clear7.i.i.i
  store i64 %bf.set.i.i.i, ptr %1, align 8, !noalias !22
  br label %_ZN4cvc58internal12NodeTemplateILb1EE4nullEv.exit

if.else.i.i.i:                                    ; preds = %if.end
  %cmp12.i.i.i = icmp eq i32 %bf.cast.i.i.i, 1048574
  br i1 %cmp12.i.i.i, label %if.then13.i.i.i, label %_ZN4cvc58internal12NodeTemplateILb1EE4nullEv.exit

if.then13.i.i.i:                                  ; preds = %if.else.i.i.i
  %bf.set23.i.i.i = or i64 %bf.load.i.i.i, 1152920405095219200
  store i64 %bf.set23.i.i.i, ptr %1, align 8, !noalias !22
  tail call void @_ZN4cvc58internal4expr9NodeValue20markRefCountMaxedOutEv(ptr noundef nonnull align 8 dereferenceable(16) %1), !noalias !22
  br label %_ZN4cvc58internal12NodeTemplateILb1EE4nullEv.exit

_ZN4cvc58internal12NodeTemplateILb1EE4nullEv.exit: ; preds = %if.then.i.i.i, %if.else.i.i.i, %if.then13.i.i.i
  %d_vals = getelementptr inbounds i8, ptr %this, i64 32
  %3 = load ptr, ptr %d_vals, align 8
  %add.ptr.i = getelementptr inbounds %"class.cvc5::internal::NodeTemplate.0", ptr %3, i64 %i
  %4 = load ptr, ptr %add.ptr.i, align 8
  %cmp.not.i = icmp eq ptr %4, %1
  br i1 %cmp.not.i, label %invoke.cont, label %if.then.i

if.then.i:                                        ; preds = %_ZN4cvc58internal12NodeTemplateILb1EE4nullEv.exit
  %bf.load.i.i = load i64, ptr %4, align 8
  %5 = and i64 %bf.load.i.i, 1152920405095219200
  %cmp.not.i.i = icmp eq i64 %5, 1152920405095219200
  br i1 %cmp.not.i.i, label %_ZN4cvc58internal4expr9NodeValue3decEv.exit.i, label %if.then.i.i

if.then.i.i:                                      ; preds = %if.then.i
  %bf.value.i.i = add i64 %bf.load.i.i, 1152920405095219200
  %bf.shl.i.i = and i64 %bf.value.i.i, 1152920405095219200
  %bf.clear7.i.i = and i64 %bf.load.i.i, -1152920405095219201
  %bf.set.i.i = or disjoint i64 %bf.shl.i.i, %bf.clear7.i.i
  store i64 %bf.set.i.i, ptr %4, align 8
  %cmp12.i.i = icmp eq i64 %bf.shl.i.i, 0
  br i1 %cmp12.i.i, label %if.then13.i.i, label %_ZN4cvc58internal4expr9NodeValue3decEv.exit.i

if.then13.i.i:                                    ; preds = %if.then.i.i
  invoke void @_ZN4cvc58internal4expr9NodeValue15markForDeletionEv(ptr noundef nonnull align 8 dereferenceable(16) %4)
          to label %_ZN4cvc58internal4expr9NodeValue3decEv.exit.i unwind label %lpad

_ZN4cvc58internal4expr9NodeValue3decEv.exit.i:    ; preds = %if.then13.i.i, %if.then.i.i, %if.then.i
  store ptr %1, ptr %add.ptr.i, align 8
  %bf.load.i2.i = load i64, ptr %1, align 8
  %bf.lshr.i.i = lshr i64 %bf.load.i2.i, 40
  %6 = trunc i64 %bf.lshr.i.i to i32
  %bf.cast.i.i = and i32 %6, 1048575
  %cmp.i.i = icmp ult i32 %bf.cast.i.i, 1048574
  br i1 %cmp.i.i, label %if.then.i5.i, label %if.else.i.i

if.then.i5.i:                                     ; preds = %_ZN4cvc58internal4expr9NodeValue3decEv.exit.i
  %bf.value.i6.i = add i64 %bf.load.i2.i, 1099511627776
  %bf.shl.i7.i = and i64 %bf.value.i6.i, 1152920405095219200
  %bf.clear7.i8.i = and i64 %bf.load.i2.i, -1152920405095219201
  %bf.set.i9.i = or disjoint i64 %bf.shl.i7.i, %bf.clear7.i8.i
  store i64 %bf.set.i9.i, ptr %1, align 8
  br label %invoke.cont

if.else.i.i:                                      ; preds = %_ZN4cvc58internal4expr9NodeValue3decEv.exit.i
  %cmp12.i3.i = icmp eq i32 %bf.cast.i.i, 1048574
  br i1 %cmp12.i3.i, label %if.then13.i4.i, label %invoke.cont

if.then13.i4.i:                                   ; preds = %if.else.i.i
  %bf.set23.i.i = or i64 %bf.load.i2.i, 1152920405095219200
  store i64 %bf.set23.i.i, ptr %1, align 8
  invoke void @_ZN4cvc58internal4expr9NodeValue20markRefCountMaxedOutEv(ptr noundef nonnull align 8 dereferenceable(16) %1)
          to label %invoke.cont unwind label %lpad

invoke.cont:                                      ; preds = %if.else.i.i, %if.then.i5.i, %_ZN4cvc58internal12NodeTemplateILb1EE4nullEv.exit, %if.then13.i4.i
  %bf.load.i.i2 = load i64, ptr %1, align 8
  %7 = and i64 %bf.load.i.i2, 1152920405095219200
  %cmp.not.i.i3 = icmp eq i64 %7, 1152920405095219200
  br i1 %cmp.not.i.i3, label %_ZN4cvc58internal12NodeTemplateILb1EED2Ev.exit, label %if.then.i.i4

if.then.i.i4:                                     ; preds = %invoke.cont
  %bf.value.i.i5 = add i64 %bf.load.i.i2, 1152920405095219200
  %bf.shl.i.i6 = and i64 %bf.value.i.i5, 1152920405095219200
  %bf.clear7.i.i7 = and i64 %bf.load.i.i2, -1152920405095219201
  %bf.set.i.i8 = or disjoint i64 %bf.shl.i.i6, %bf.clear7.i.i7
  store i64 %bf.set.i.i8, ptr %1, align 8
  %cmp12.i.i9 = icmp eq i64 %bf.shl.i.i6, 0
  br i1 %cmp12.i.i9, label %if.then13.i.i10, label %_ZN4cvc58internal12NodeTemplateILb1EED2Ev.exit

if.then13.i.i10:                                  ; preds = %if.then.i.i4
  invoke void @_ZN4cvc58internal4expr9NodeValue15markForDeletionEv(ptr noundef nonnull align 8 dereferenceable(16) %1)
          to label %_ZN4cvc58internal12NodeTemplateILb1EED2Ev.exit unwind label %terminate.lpad.i

terminate.lpad.i:                                 ; preds = %if.then13.i.i10
  %8 = landingpad { ptr, i32 }
          catch ptr null
  %9 = extractvalue { ptr, i32 } %8, 0
  tail call void @__clang_call_terminate(ptr %9) #15
  unreachable

_ZN4cvc58internal12NodeTemplateILb1EED2Ev.exit:   ; preds = %invoke.cont, %if.then.i.i4, %if.then13.i.i10
  ret void

lpad:                                             ; preds = %if.then13.i4.i, %if.then13.i.i
  %10 = landingpad { ptr, i32 }
          cleanup
  call void @_ZN4cvc58internal12NodeTemplateILb1EED2Ev(ptr noundef nonnull align 8 dereferenceable(8) %ref.tmp) #16
  resume { ptr, i32 } %10
}